(dp1
S'pset_path'
p2
S'tasks/CMSSWTask_NMSSM_XYH_Y_tautau_H_gg_MX_400_MY_70_STEP7_v1/pset.py'
p3
sS'queried_nevents'
p4
I0
sS'io_mapping'
p5
(lp6
sS'prepared_inputs'
p7
I01
sS'global_tag'
p8
NsS'job_submission_history'
p9
(dp10
sS'package_path'
p11
S'tasks/CMSSWTask_NMSSM_XYH_Y_tautau_H_gg_MX_400_MY_70_STEP7_v1/package.tar.gz'
p12
sS'executable_path'
p13
S'tasks/CMSSWTask_NMSSM_XYH_Y_tautau_H_gg_MX_400_MY_70_STEP7_v1/executable.sh'
p14
s.