(dp1
S'pset_path'
p2
S'tasks/CMSSWTask_NMSSM_XYH_Y_tautau_H_gg_MX_400_MY_70_STEP1_v1/pset.py'
p3
sS'queried_nevents'
p4
I0
sS'io_mapping'
p5
(lp6
(lp7
(lp8
ccopy_reg
_reconstructor
p9
(cmetis.File
EventsFile
p10
c__builtin__
object
p11
NtRp12
(dp13
S'status'
p14
I11
sS'name'
p15
S'dummy_0.root'
p16
sS'basepath'
p17
NsS'nevents'
p18
I0
sS'file_exists'
p19
I01
sS'nevents_negative'
p20
I0
sS'fake'
p21
I01
sS'have_calculated_nevents_negative'
p22
I00
sbaag9
(g10
g11
NtRp23
(dp24
g14
I7
sg15
S'/hadoop/cms/store/user/fsetti/nanoAOD_runII_UL/NMSSM_XYH_Y_tautau_H_gg_MX_400_MY_70_STEP1_v1//output_1.root'
p25
sg17
Nsg18
I0
sg19
I01
sg20
I0
sg21
I00
sg22
I00
sbaasS'prepared_inputs'
p26
I01
sS'global_tag'
p27
NsS'job_submission_history'
p28
(dp29
I1
(lp30
S'412386.0'
p31
aS'412389.0'
p32
assS'package_path'
p33
S'tasks/CMSSWTask_NMSSM_XYH_Y_tautau_H_gg_MX_400_MY_70_STEP1_v1/package.tar.gz'
p34
sS'executable_path'
p35
S'tasks/CMSSWTask_NMSSM_XYH_Y_tautau_H_gg_MX_400_MY_70_STEP1_v1/executable.sh'
p36
s.